target datalayout = "e-m:e-p270:32:32-p271:32:32-p272:64:64-i64:64-i128:128-f80:128-n8:16:32:64-S128"
target triple = "x86_64-pc-linux-gnu"

%struct.H5O_t = type { %struct.H5C_cache_entry_t, i64, i64, i8, i64, i8, i32, i8, i8, i64, i64, i64, i64, i32, i32, i64, i64, ptr, i64, i64, i64, i64, ptr, i8, ptr }
%struct.H5C_cache_entry_t = type { ptr, i64, i64, ptr, i8, ptr, i8, i8, i8, i8, i32, i8, i8, i8, i8, i8, i32, ptr, i32, i32, i32, i32, i32, i8, i8, ptr, ptr, ptr, ptr, ptr, ptr, i8, i32, i8, i64, ptr, i64, i64, i32, i8, i32, i32, i8, ptr, ptr, ptr }
%struct.H5O_mesg_t = type { ptr, i8, i8, i32, i32, ptr, ptr, i64 }

@H5O_init_g = external global i8, align 1
@H5_libterm_g = external global i8, align 1
@.str = private unnamed_addr constant [104 x i8] c"generated/home/dtcxzyw/WorkSpace/Projects/compilers/llvm-opt-benchmark/bench/hdf5/hdf5/src/H5Omessage.c\00", align 1
@H5E_FUNC_g = external global i64, align 8
@H5E_CANTINIT_g = external global i64, align 8
@.str.1 = private unnamed_addr constant [32 x i8] c"interface initialization failed\00", align 1
@H5E_OHDR_g = external global i64, align 8
@H5O_msg_class_g = external constant [26 x ptr], align 16
@H5E_NOTFOUND_g = external global i64, align 8
@.str.9 = private unnamed_addr constant [23 x i8] c"message type not found\00", align 1
@H5E_CANTPROTECT_g = external global i64, align 8
@.str.14 = private unnamed_addr constant [32 x i8] c"unable to protect object header\00", align 1
@H5E_CANTUNPROTECT_g = external global i64, align 8
@.str.16 = private unnamed_addr constant [32 x i8] c"unable to release object header\00", align 1
@__func__.H5O_msg_get_flags = private unnamed_addr constant [18 x i8] c"H5O_msg_get_flags\00", align 1

; Function Attrs: nounwind uwtable
define i32 @H5O_msg_get_flags(ptr noundef %0, i32 noundef %1, ptr noundef %2) #0 {
  %4 = alloca ptr, align 8
  %5 = alloca i32, align 4
  %6 = alloca ptr, align 8
  %7 = alloca ptr, align 8
  %8 = alloca ptr, align 8
  %9 = alloca ptr, align 8
  %10 = alloca i32, align 4
  %11 = alloca i32, align 4
  %12 = alloca i8, align 1
  store ptr %0, ptr %4, align 8, !tbaa !3
  store i32 %1, ptr %5, align 4, !tbaa !8
  store ptr %2, ptr %6, align 8, !tbaa !99
  call void @llvm.lifetime.start.p0(i64 8, ptr %7) #5
  store ptr null, ptr %7, align 8, !tbaa !11
  call void @llvm.lifetime.start.p0(i64 8, ptr %8) #5
  call void @llvm.lifetime.start.p0(i64 8, ptr %9) #5
  call void @llvm.lifetime.start.p0(i64 4, ptr %10) #5
  call void @llvm.lifetime.start.p0(i64 4, ptr %11) #5
  store i32 0, ptr %11, align 4, !tbaa !8
  call void @llvm.lifetime.start.p0(i64 1, ptr %12) #5
  store i8 0, ptr %12, align 1, !tbaa !13
  %13 = load i8, ptr @H5O_init_g, align 1, !tbaa !13, !range !15, !noundef !16
  %14 = trunc i8 %13 to i1
  br i1 %14, label %19, label %15

15:                                               ; preds = %3
  %16 = load i8, ptr @H5_libterm_g, align 1, !tbaa !13, !range !15, !noundef !16
  %17 = trunc i8 %16 to i1
  %18 = xor i1 %17, true
  br label %19

19:                                               ; preds = %15, %3
  %20 = phi i1 [ false, %3 ], [ %18, %15 ]
  %21 = xor i1 %20, true
  %22 = xor i1 %21, true
  %23 = zext i1 %22 to i32
  %24 = sext i32 %23 to i64
  %25 = call i64 @llvm.expect.i64(i64 %24, i64 0)
  %26 = icmp ne i64 %25, 0
  br i1 %26, label %27, label %50

27:                                               ; preds = %19
  store i8 1, ptr @H5O_init_g, align 1, !tbaa !13
  %28 = call i32 @H5O__init_package()
  %29 = icmp slt i32 %28, 0
  br i1 %29, label %30, label %49

30:                                               ; preds = %27
  store i8 0, ptr @H5O_init_g, align 1, !tbaa !13
  br label %31

31:                                               ; preds = %30
  br label %32

32:                                               ; preds = %31
  br label %33

33:                                               ; preds = %32
  %34 = load i64, ptr @H5E_FUNC_g, align 8, !tbaa !17
  %35 = load i64, ptr @H5E_CANTINIT_g, align 8, !tbaa !17
  %36 = call i32 (ptr, ptr, i32, i64, i64, ptr, ...) @H5E_printf_stack(ptr noundef @.str, ptr noundef @__func__.H5O_msg_get_flags, i32 noundef 2045, i64 noundef %34, i64 noundef %35, ptr noundef @.str.1)
  br label %37

37:                                               ; preds = %33
  br label %38

38:                                               ; preds = %37
  store i8 1, ptr %12, align 1, !tbaa !13
  %39 = load i8, ptr %12, align 1, !tbaa !13, !range !15, !noundef !16
  %40 = trunc i8 %39 to i1
  %41 = zext i1 %40 to i8
  store i8 %41, ptr %12, align 1, !tbaa !13
  br label %42

42:                                               ; preds = %38
  br label %43

43:                                               ; preds = %42
  br label %44

44:                                               ; preds = %43
  store i32 -1, ptr %11, align 4, !tbaa !8
  br label %148

45:                                               ; No predecessors!
  br label %46

46:                                               ; preds = %45
  br label %47

47:                                               ; preds = %46
  br label %48

48:                                               ; preds = %47
  br label %49

49:                                               ; preds = %48, %27
  br label %50

50:                                               ; preds = %49, %19
  %51 = load i8, ptr @H5O_init_g, align 1, !tbaa !13, !range !15, !noundef !16
  %52 = trunc i8 %51 to i1
  br i1 %52, label %57, label %53

53:                                               ; preds = %50
  %54 = load i8, ptr @H5_libterm_g, align 1, !tbaa !13, !range !15, !noundef !16
  %55 = trunc i8 %54 to i1
  %56 = xor i1 %55, true
  br label %57

57:                                               ; preds = %53, %50
  %58 = phi i1 [ true, %50 ], [ %56, %53 ]
  %59 = xor i1 %58, true
  %60 = xor i1 %59, true
  %61 = zext i1 %60 to i32
  %62 = sext i32 %61 to i64
  %63 = call i64 @llvm.expect.i64(i64 %62, i64 1)
  %64 = icmp ne i64 %63, 0
  br i1 %64, label %65, label %173

65:                                               ; preds = %57
  %66 = load i32, ptr %5, align 4, !tbaa !8
  %67 = zext i32 %66 to i64
  %68 = getelementptr inbounds nuw [26 x ptr], ptr @H5O_msg_class_g, i64 0, i64 %67
  %69 = load ptr, ptr %68, align 8, !tbaa !23
  store ptr %69, ptr %8, align 8, !tbaa !23
  %70 = load ptr, ptr %4, align 8, !tbaa !3
  %71 = call ptr @H5O_protect(ptr noundef %70, i32 noundef 128, i1 noundef zeroext false)
  store ptr %71, ptr %7, align 8, !tbaa !11
  %72 = icmp eq ptr null, %71
  br i1 %72, label %73, label %92

73:                                               ; preds = %65
  br label %74

74:                                               ; preds = %73
  br label %75

75:                                               ; preds = %74
  br label %76

76:                                               ; preds = %75
  %77 = load i64, ptr @H5E_OHDR_g, align 8, !tbaa !17
  %78 = load i64, ptr @H5E_CANTPROTECT_g, align 8, !tbaa !17
  %79 = call i32 (ptr, ptr, i32, i64, i64, ptr, ...) @H5E_printf_stack(ptr noundef @.str, ptr noundef @__func__.H5O_msg_get_flags, i32 noundef 2057, i64 noundef %77, i64 noundef %78, ptr noundef @.str.14)
  br label %80

80:                                               ; preds = %76
  br label %81

81:                                               ; preds = %80
  store i8 1, ptr %12, align 1, !tbaa !13
  %82 = load i8, ptr %12, align 1, !tbaa !13, !range !15, !noundef !16
  %83 = trunc i8 %82 to i1
  %84 = zext i1 %83 to i8
  store i8 %84, ptr %12, align 1, !tbaa !13
  br label %85

85:                                               ; preds = %81
  br label %86

86:                                               ; preds = %85
  br label %87

87:                                               ; preds = %86
  store i32 -1, ptr %11, align 4, !tbaa !8
  br label %148

88:                                               ; No predecessors!
  br label %89

89:                                               ; preds = %88
  br label %90

90:                                               ; preds = %89
  br label %91

91:                                               ; preds = %90
  br label %92

92:                                               ; preds = %91, %65
  store i32 0, ptr %10, align 4, !tbaa !8
  %93 = load ptr, ptr %7, align 8, !tbaa !11
  %94 = getelementptr inbounds nuw %struct.H5O_t, ptr %93, i32 0, i32 17
  %95 = load ptr, ptr %94, align 8, !tbaa !34
  %96 = getelementptr inbounds %struct.H5O_mesg_t, ptr %95, i64 0
  store ptr %96, ptr %9, align 8, !tbaa !47
  br label %97

97:                                               ; preds = %112, %92
  %98 = load i32, ptr %10, align 4, !tbaa !8
  %99 = zext i32 %98 to i64
  %100 = load ptr, ptr %7, align 8, !tbaa !11
  %101 = getelementptr inbounds nuw %struct.H5O_t, ptr %100, i32 0, i32 15
  %102 = load i64, ptr %101, align 8, !tbaa !54
  %103 = icmp ult i64 %99, %102
  br i1 %103, label %104, label %117

104:                                              ; preds = %97
  %105 = load ptr, ptr %8, align 8, !tbaa !23
  %106 = load ptr, ptr %9, align 8, !tbaa !47
  %107 = getelementptr inbounds nuw %struct.H5O_mesg_t, ptr %106, i32 0, i32 0
  %108 = load ptr, ptr %107, align 8, !tbaa !55
  %109 = icmp eq ptr %105, %108
  br i1 %109, label %110, label %111

110:                                              ; preds = %104
  br label %117

111:                                              ; preds = %104
  br label %112

112:                                              ; preds = %111
  %113 = load i32, ptr %10, align 4, !tbaa !8
  %114 = add i32 %113, 1
  store i32 %114, ptr %10, align 4, !tbaa !8
  %115 = load ptr, ptr %9, align 8, !tbaa !47
  %116 = getelementptr inbounds nuw %struct.H5O_mesg_t, ptr %115, i32 1
  store ptr %116, ptr %9, align 8, !tbaa !47
  br label %97, !llvm.loop !108

117:                                              ; preds = %110, %97
  %118 = load i32, ptr %10, align 4, !tbaa !8
  %119 = zext i32 %118 to i64
  %120 = load ptr, ptr %7, align 8, !tbaa !11
  %121 = getelementptr inbounds nuw %struct.H5O_t, ptr %120, i32 0, i32 15
  %122 = load i64, ptr %121, align 8, !tbaa !54
  %123 = icmp eq i64 %119, %122
  br i1 %123, label %124, label %143

124:                                              ; preds = %117
  br label %125

125:                                              ; preds = %124
  br label %126

126:                                              ; preds = %125
  br label %127

127:                                              ; preds = %126
  %128 = load i64, ptr @H5E_OHDR_g, align 8, !tbaa !17
  %129 = load i64, ptr @H5E_NOTFOUND_g, align 8, !tbaa !17
  %130 = call i32 (ptr, ptr, i32, i64, i64, ptr, ...) @H5E_printf_stack(ptr noundef @.str, ptr noundef @__func__.H5O_msg_get_flags, i32 noundef 2065, i64 noundef %128, i64 noundef %129, ptr noundef @.str.9)
  br label %131

131:                                              ; preds = %127
  br label %132

132:                                              ; preds = %131
  store i8 1, ptr %12, align 1, !tbaa !13
  %133 = load i8, ptr %12, align 1, !tbaa !13, !range !15, !noundef !16
  %134 = trunc i8 %133 to i1
  %135 = zext i1 %134 to i8
  store i8 %135, ptr %12, align 1, !tbaa !13
  br label %136

136:                                              ; preds = %132
  br label %137

137:                                              ; preds = %136
  br label %138

138:                                              ; preds = %137
  store i32 -1, ptr %11, align 4, !tbaa !8
  br label %148

139:                                              ; No predecessors!
  br label %140

140:                                              ; preds = %139
  br label %141

141:                                              ; preds = %140
  br label %142

142:                                              ; preds = %141
  br label %143

143:                                              ; preds = %142, %117
  %144 = load ptr, ptr %9, align 8, !tbaa !47
  %145 = getelementptr inbounds nuw %struct.H5O_mesg_t, ptr %144, i32 0, i32 2
  %146 = load i8, ptr %145, align 1, !tbaa !52
  %147 = load ptr, ptr %6, align 8, !tbaa !99
  store i8 %146, ptr %147, align 1, !tbaa !69
  br label %148

148:                                              ; preds = %143, %138, %87, %44
  %149 = load ptr, ptr %7, align 8, !tbaa !11
  %150 = icmp ne ptr %149, null
  br i1 %150, label %151, label %172

151:                                              ; preds = %148
  %152 = load ptr, ptr %4, align 8, !tbaa !3
  %153 = load ptr, ptr %7, align 8, !tbaa !11
  %154 = call i32 @H5O_unprotect(ptr noundef %152, ptr noundef %153, i32 noundef 0)
  %155 = icmp slt i32 %154, 0
  br i1 %155, label %156, label %172

156:                                              ; preds = %151
  br label %157

157:                                              ; preds = %156
  br label %158

158:                                              ; preds = %157
  br label %159

159:                                              ; preds = %158
  %160 = load i64, ptr @H5E_OHDR_g, align 8, !tbaa !17
  %161 = load i64, ptr @H5E_CANTUNPROTECT_g, align 8, !tbaa !17
  %162 = call i32 (ptr, ptr, i32, i64, i64, ptr, ...) @H5E_printf_stack(ptr noundef @.str, ptr noundef @__func__.H5O_msg_get_flags, i32 noundef 2072, i64 noundef %160, i64 noundef %161, ptr noundef @.str.16)
  br label %163

163:                                              ; preds = %159
  br label %164

164:                                              ; preds = %163
  store i8 1, ptr %12, align 1, !tbaa !13
  %165 = load i8, ptr %12, align 1, !tbaa !13, !range !15, !noundef !16
  %166 = trunc i8 %165 to i1
  %167 = zext i1 %166 to i8
  store i8 %167, ptr %12, align 1, !tbaa !13
  br label %168

168:                                              ; preds = %164
  br label %169

169:                                              ; preds = %168
  store i32 -1, ptr %11, align 4, !tbaa !8
  br label %170

170:                                              ; preds = %169
  br label %171

171:                                              ; preds = %170
  br label %172

172:                                              ; preds = %171, %151, %148
  br label %173

173:                                              ; preds = %172, %57
  %174 = load i32, ptr %11, align 4, !tbaa !8
  call void @llvm.lifetime.end.p0(i64 1, ptr %12) #5
  call void @llvm.lifetime.end.p0(i64 4, ptr %11) #5
  call void @llvm.lifetime.end.p0(i64 4, ptr %10) #5
  call void @llvm.lifetime.end.p0(i64 8, ptr %9) #5
  call void @llvm.lifetime.end.p0(i64 8, ptr %8) #5
  call void @llvm.lifetime.end.p0(i64 8, ptr %7) #5
  ret i32 %174
}