; Function Attrs: nounwind uwtable
define range(i32 -1, 1) i32 @H5O_msg_get_flags(ptr noundef %0, i32 noundef %1, ptr noundef writeonly captures(none) %2) local_unnamed_addr #0 {
  %4 = load i8, ptr @H5O_init_g, align 1, !tbaa !3, !range !7, !noundef !8
  %5 = trunc nuw i8 %4 to i1
  %6 = load i8, ptr @H5_libterm_g, align 1, !range !7
  %7 = trunc nuw i8 %6 to i1
  %8 = select i1 %5, i1 true, i1 %7
  br i1 %8, label %16, label %9, !prof !9

9:                                                ; preds = %3
  store i8 1, ptr @H5O_init_g, align 1, !tbaa !3
  %10 = tail call i32 @H5O__init_package() #7
  %11 = icmp slt i32 %10, 0
  br i1 %11, label %12, label %._crit_edge37

._crit_edge37:                                    ; preds = %9
  %.pre = load i8, ptr @H5O_init_g, align 1, !tbaa !3, !range !7
  %.pre38 = load i8, ptr @H5_libterm_g, align 1, !range !7
  %.pre39 = trunc nuw i8 %.pre to i1
  %.pre40 = trunc nuw i8 %.pre38 to i1
  br label %16

12:                                               ; preds = %9
  store i8 0, ptr @H5O_init_g, align 1, !tbaa !3
  %13 = load i64, ptr @H5E_FUNC_g, align 8, !tbaa !10
  %14 = load i64, ptr @H5E_CANTINIT_g, align 8, !tbaa !10
  %15 = tail call i32 (ptr, ptr, i32, i64, i64, ptr, ...) @H5E_printf_stack(ptr noundef nonnull @.str, ptr noundef nonnull @__func__.H5O_msg_get_flags, i32 noundef 2045, i64 noundef %13, i64 noundef %14, ptr noundef nonnull @.str.1) #7
  br label %.thread

16:                                               ; preds = %._crit_edge37, %3
  %.pre-phi41 = phi i1 [ %.pre40, %._crit_edge37 ], [ %7, %3 ]
  %.pre-phi = phi i1 [ %.pre39, %._crit_edge37 ], [ %5, %3 ]
  %17 = xor i1 %.pre-phi41, true
  %18 = select i1 %.pre-phi, i1 true, i1 %17
  br i1 %18, label %19, label %.thread, !prof !9

19:                                               ; preds = %16
  %20 = zext i32 %1 to i64
  %21 = getelementptr inbounds nuw [26 x ptr], ptr @H5O_msg_class_g, i64 0, i64 %20
  %22 = load ptr, ptr %21, align 8, !tbaa !16
  %23 = tail call ptr @H5O_protect(ptr noundef %0, i32 noundef 128, i1 noundef zeroext false) #7
  %24 = icmp eq ptr %23, null
  br i1 %24, label %25, label %29

25:                                               ; preds = %19
  %26 = load i64, ptr @H5E_OHDR_g, align 8, !tbaa !10
  %27 = load i64, ptr @H5E_CANTPROTECT_g, align 8, !tbaa !10
  %28 = tail call i32 (ptr, ptr, i32, i64, i64, ptr, ...) @H5E_printf_stack(ptr noundef nonnull @.str, ptr noundef nonnull @__func__.H5O_msg_get_flags, i32 noundef 2057, i64 noundef %26, i64 noundef %27, ptr noundef nonnull @.str.14) #7
  br label %.thread

29:                                               ; preds = %19
  %30 = getelementptr inbounds nuw i8, ptr %23, i64 336
  %31 = load i64, ptr %30, align 8, !tbaa !49
  %.not = icmp eq i64 %31, 0
  br i1 %.not, label %._crit_edge.thread, label %.lr.ph.preheader

.lr.ph.preheader:                                 ; preds = %29
  %32 = getelementptr inbounds nuw i8, ptr %23, i64 352
  %33 = load ptr, ptr %32, align 8, !tbaa !28
  %34 = load ptr, ptr %33, align 8, !tbaa !50
  %35 = icmp eq ptr %22, %34
  br i1 %35, label %._crit_edge, label %.lr.ph46

.lr.ph:                                           ; preds = %.lr.ph46
  %36 = load ptr, ptr %39, align 8, !tbaa !50
  %37 = icmp eq ptr %22, %36
  br i1 %37, label %._crit_edge, label %.lr.ph46, !llvm.loop !91

.lr.ph46:                                         ; preds = %.lr.ph.preheader, %.lr.ph
  %.0212945 = phi ptr [ %39, %.lr.ph ], [ %33, %.lr.ph.preheader ]
  %.0203044 = phi i32 [ %38, %.lr.ph ], [ 0, %.lr.ph.preheader ]
  %38 = add i32 %.0203044, 1
  %39 = getelementptr inbounds nuw i8, ptr %.0212945, i64 48
  %40 = zext i32 %38 to i64
  %41 = icmp ugt i64 %31, %40
  br i1 %41, label %.lr.ph, label %._crit_edge, !llvm.loop !91

._crit_edge:                                      ; preds = %.lr.ph, %.lr.ph46, %.lr.ph.preheader
  %.021.lcssa = phi ptr [ %33, %.lr.ph.preheader ], [ %39, %.lr.ph46 ], [ %39, %.lr.ph ]
  %.lcssa28 = phi i64 [ 0, %.lr.ph.preheader ], [ %40, %.lr.ph46 ], [ %40, %.lr.ph ]
  %42 = icmp eq i64 %31, %.lcssa28
  br i1 %42, label %._crit_edge.thread, label %46

._crit_edge.thread:                               ; preds = %29, %._crit_edge
  %43 = load i64, ptr @H5E_OHDR_g, align 8, !tbaa !10
  %44 = load i64, ptr @H5E_NOTFOUND_g, align 8, !tbaa !10
  %45 = tail call i32 (ptr, ptr, i32, i64, i64, ptr, ...) @H5E_printf_stack(ptr noundef nonnull @.str, ptr noundef nonnull @__func__.H5O_msg_get_flags, i32 noundef 2065, i64 noundef %43, i64 noundef %44, ptr noundef nonnull @.str.9) #7
  br label %49

46:                                               ; preds = %._crit_edge
  %47 = getelementptr inbounds nuw i8, ptr %.021.lcssa, i64 9
  %48 = load i8, ptr %47, align 1, !tbaa !47
  store i8 %48, ptr %2, align 1, !tbaa !62
  br label %49

49:                                               ; preds = %._crit_edge.thread, %46
  %.0 = phi i32 [ -1, %._crit_edge.thread ], [ 0, %46 ]
  %50 = tail call i32 @H5O_unprotect(ptr noundef %0, ptr noundef nonnull %23, i32 noundef 0) #7
  %51 = icmp slt i32 %50, 0
  br i1 %51, label %52, label %.thread

52:                                               ; preds = %49
  %53 = load i64, ptr @H5E_OHDR_g, align 8, !tbaa !10
  %54 = load i64, ptr @H5E_CANTUNPROTECT_g, align 8, !tbaa !10
  %55 = tail call i32 (ptr, ptr, i32, i64, i64, ptr, ...) @H5E_printf_stack(ptr noundef nonnull @.str, ptr noundef nonnull @__func__.H5O_msg_get_flags, i32 noundef 2072, i64 noundef %53, i64 noundef %54, ptr noundef nonnull @.str.16) #7
  br label %.thread

.thread:                                          ; preds = %25, %12, %49, %52, %16
  %.1 = phi i32 [ -1, %52 ], [ %.0, %49 ], [ 0, %16 ], [ -1, %12 ], [ -1, %25 ]
  ret i32 %.1
}